; Function Attrs: mustprogress uwtable
define hidden void @_ZN2lp10lar_solver32add_non_basic_var_to_core_fieldsEjb(ptr noundef nonnull align 8 dereferenceable(2128) %0, i32 noundef %1, i1 noundef zeroext %2) local_unnamed_addr #5 align 2 {
  %4 = getelementptr inbounds nuw i8, ptr %0, i64 1256
  %5 = tail call noundef i32 @_ZN2lp12var_register7add_varEjb(ptr noundef nonnull align 8 dereferenceable(64) %4, i32 noundef %1, i1 noundef zeroext %2)
  %6 = getelementptr inbounds nuw i8, ptr %0, i64 576
  %7 = load ptr, ptr %6, align 8, !tbaa !398
  %8 = icmp eq ptr %7, null
  br i1 %8, label %15, label %9

9:                                                ; preds = %3
  %10 = getelementptr inbounds i8, ptr %7, i64 -4
  %11 = load i32, ptr %10, align 4, !tbaa !261
  %12 = getelementptr inbounds i8, ptr %7, i64 -8
  %13 = load i32, ptr %12, align 4, !tbaa !261
  %14 = icmp eq i32 %11, %13
  br i1 %14, label %15, label %_ZN6vectorIN2lp11column_typeELb1EjE9push_backERKS1_.exit.i

15:                                               ; preds = %9, %3
  tail call void @_ZN6vectorIN2lp11column_typeELb1EjE13expand_vectorEv(ptr noundef nonnull align 8 dereferenceable(8) %6)
  %.pre.i.i = load ptr, ptr %6, align 8, !tbaa !398
  %.phi.trans.insert.i.i = getelementptr inbounds i8, ptr %.pre.i.i, i64 -4
  %.pre2.i.i = load i32, ptr %.phi.trans.insert.i.i, align 4, !tbaa !261
  br label %_ZN6vectorIN2lp11column_typeELb1EjE9push_backERKS1_.exit.i

_ZN6vectorIN2lp11column_typeELb1EjE9push_backERKS1_.exit.i: ; preds = %15, %9
  %16 = phi i32 [ %.pre2.i.i, %15 ], [ %11, %9 ]
  %17 = phi ptr [ %.pre.i.i, %15 ], [ %7, %9 ]
  %18 = getelementptr inbounds i8, ptr %17, i64 -4
  %19 = zext i32 %16 to i64
  %20 = getelementptr inbounds nuw i32, ptr %17, i64 %19
  store i32 0, ptr %20, align 4, !tbaa !442
  %21 = add i32 %16, 1
  store i32 %21, ptr %18, align 4, !tbaa !261
  %22 = getelementptr inbounds nuw i8, ptr %0, i64 584
  %23 = getelementptr inbounds nuw i8, ptr %0, i64 560
  %24 = load ptr, ptr %23, align 8, !tbaa !247
  %25 = icmp eq ptr %24, null
  br i1 %25, label %_ZNK2lp14stacked_vectorINS_11column_typeEE3nowEv.exit.i, label %26

26:                                               ; preds = %_ZN6vectorIN2lp11column_typeELb1EjE9push_backERKS1_.exit.i
  %27 = getelementptr inbounds i8, ptr %24, i64 -4
  %28 = load i32, ptr %27, align 4, !tbaa !261
  br label %_ZNK2lp14stacked_vectorINS_11column_typeEE3nowEv.exit.i

_ZNK2lp14stacked_vectorINS_11column_typeEE3nowEv.exit.i: ; preds = %26, %_ZN6vectorIN2lp11column_typeELb1EjE9push_backERKS1_.exit.i
  %.0.i.i.i = phi i32 [ %28, %26 ], [ 0, %_ZN6vectorIN2lp11column_typeELb1EjE9push_backERKS1_.exit.i ]
  %29 = load ptr, ptr %22, align 8, !tbaa !247
  %30 = icmp eq ptr %29, null
  br i1 %30, label %37, label %31

31:                                               ; preds = %_ZNK2lp14stacked_vectorINS_11column_typeEE3nowEv.exit.i
  %32 = getelementptr inbounds i8, ptr %29, i64 -4
  %33 = load i32, ptr %32, align 4, !tbaa !261
  %34 = getelementptr inbounds i8, ptr %29, i64 -8
  %35 = load i32, ptr %34, align 4, !tbaa !261
  %36 = icmp eq i32 %33, %35
  br i1 %36, label %37, label %_ZN2lp14stacked_vectorINS_11column_typeEE9push_backERKS1_.exit

37:                                               ; preds = %31, %_ZNK2lp14stacked_vectorINS_11column_typeEE3nowEv.exit.i
  tail call void @_ZN6vectorIjLb0EjE13expand_vectorEv(ptr noundef nonnull align 8 dereferenceable(8) %22)
  %.pre.i2.i = load ptr, ptr %22, align 8, !tbaa !247
  %.phi.trans.insert.i3.i = getelementptr inbounds i8, ptr %.pre.i2.i, i64 -4
  %.pre2.i4.i = load i32, ptr %.phi.trans.insert.i3.i, align 4, !tbaa !261
  br label %_ZN2lp14stacked_vectorINS_11column_typeEE9push_backERKS1_.exit

_ZN2lp14stacked_vectorINS_11column_typeEE9push_backERKS1_.exit: ; preds = %31, %37
  %38 = phi i32 [ %.pre2.i4.i, %37 ], [ %33, %31 ]
  %39 = phi ptr [ %.pre.i2.i, %37 ], [ %29, %31 ]
  %40 = getelementptr inbounds i8, ptr %39, i64 -4
  %41 = zext i32 %38 to i64
  %42 = getelementptr inbounds nuw i32, ptr %39, i64 %41
  store i32 %.0.i.i.i, ptr %42, align 4, !tbaa !261
  %43 = add i32 %38, 1
  store i32 %43, ptr %40, align 4, !tbaa !261
  tail call void @_ZN2lp10lar_solver34add_new_var_to_core_fields_for_mpqEb(ptr noundef nonnull align 8 dereferenceable(2128) %0, i1 noundef zeroext false)
  ret void
}